; Function Attrs: mustprogress nounwind uwtable
define internal void @_ZN12_GLOBAL__N_122TransformSelectorRegexD2Ev(ptr noundef nonnull align 8 dereferenceable(600) %0) unnamed_addr #6 align 2 {
  store ptr getelementptr inbounds ({ [8 x ptr] }, ptr @_ZTVN12_GLOBAL__N_122TransformSelectorRegexE, i64 0, i32 0, i64 2), ptr %0, align 8
  %2 = getelementptr inbounds i8, ptr %0, i64 584
  %3 = load ptr, ptr %2, align 8
  %4 = icmp eq ptr %3, null
  br i1 %4, label %_ZN5cmsys17RegularExpressionD2Ev.exit, label %5

5:                                                ; preds = %1
  tail call void @_ZdaPv(ptr noundef nonnull %3) #29
  br label %_ZN5cmsys17RegularExpressionD2Ev.exit

_ZN5cmsys17RegularExpressionD2Ev.exit:            ; preds = %1, %5
  store ptr getelementptr inbounds ({ [8 x ptr] }, ptr @_ZTVN12_GLOBAL__N_117TransformSelectorE, i64 0, i32 0, i64 2), ptr %0, align 8
  %6 = getelementptr inbounds i8, ptr %0, i64 8
  tail call void @_ZNSt7__cxx1112basic_stringIcSt11char_traitsIcESaIcEED1Ev(ptr noundef nonnull align 8 dereferenceable(32) %6) #27
  ret void
}